target datalayout = "e-m:e-p270:32:32-p271:32:32-p272:64:64-i64:64-i128:128-f80:128-n8:16:32:64-S128"
target triple = "x86_64-pc-linux-gnu"

%class.symbol = type { ptr }
%class.decl = type { %class.ast, %class.symbol, ptr }
%class.ast = type { i32, i32, i32, i32 }
%class.vector.43 = type { ptr }
%class.decl_info = type <{ i32, i32, %class.vector.43, i8, [7 x i8] }>
%class.seq_util = type { ptr, ptr, ptr, i32, [4 x i8], %"class.seq_util::str", %"class.seq_util::rex" }
%"class.seq_util::str" = type <{ ptr, ptr, i32, [4 x i8] }>
%"class.seq_util::rex" = type { ptr, ptr, i32, %class.vector.46, %class.ref_vector.47, %"struct.seq_util::rex::info", %"struct.seq_util::rex::info" }
%class.vector.46 = type { ptr }
%class.ref_vector.47 = type { %class.ref_vector_core.48 }
%class.ref_vector_core.48 = type { %class.ref_manager_wrapper.49, %class.ptr_vector.50 }
%class.ref_manager_wrapper.49 = type { ptr }
%class.ptr_vector.50 = type { %class.vector.51 }
%class.vector.51 = type { ptr }
%"struct.seq_util::rex::info" = type { i32, i8, i32, i32 }
%class.app = type { %class.expr, ptr, i32, %struct.app_flags, [0 x ptr] }
%class.expr = type { %class.ast }
%struct.app_flags = type <{ i16, i8, i8 }>
%"class.seq_util::rex::pp" = type <{ ptr, ptr, i8, [7 x i8] }>

; Function Attrs: mustprogress nounwind uwtable
define linkonce_odr hidden noundef zeroext i1 @_ZNK9decl_info10is_decl_ofEii(ptr noundef nonnull align 8 dereferenceable(17) %0, i32 noundef %1, i32 noundef %2) #6 comdat align 2 {
  %4 = alloca ptr, align 8
  %5 = alloca i32, align 4
  %6 = alloca i32, align 4
  store ptr %0, ptr %4, align 8, !tbaa !188
  store i32 %1, ptr %5, align 4, !tbaa !55
  store i32 %2, ptr %6, align 4, !tbaa !55
  %7 = load ptr, ptr %4, align 8
  %8 = getelementptr inbounds nuw %class.decl_info, ptr %7, i32 0, i32 0
  %9 = load i32, ptr %8, align 8, !tbaa !308
  %10 = load i32, ptr %5, align 4, !tbaa !55
  %11 = icmp eq i32 %9, %10
  br i1 %11, label %12, label %17

12:                                               ; preds = %3
  %13 = load i32, ptr %6, align 4, !tbaa !55
  %14 = getelementptr inbounds nuw %class.decl_info, ptr %7, i32 0, i32 1
  %15 = load i32, ptr %14, align 4, !tbaa !311
  %16 = icmp eq i32 %13, %15
  br label %17

17:                                               ; preds = %12, %3
  %18 = phi i1 [ false, %3 ], [ %16, %12 ]
  ret i1 %18
}

; Function Attrs: mustprogress uwtable
define linkonce_odr hidden noundef zeroext i1 @_ZNK4decl10is_decl_ofEii(ptr noundef nonnull align 8 dereferenceable(32) %0, i32 noundef %1, i32 noundef %2) #4 comdat align 2 {
  %4 = alloca ptr, align 8
  %5 = alloca i32, align 4
  %6 = alloca i32, align 4
  store ptr %0, ptr %4, align 8, !tbaa !56
  store i32 %1, ptr %5, align 4, !tbaa !55
  store i32 %2, ptr %6, align 4, !tbaa !55
  %7 = load ptr, ptr %4, align 8
  %8 = getelementptr inbounds nuw %class.decl, ptr %7, i32 0, i32 2
  %9 = load ptr, ptr %8, align 8, !tbaa !69
  %10 = icmp ne ptr %9, null
  br i1 %10, label %11, label %17

11:                                               ; preds = %3
  %12 = getelementptr inbounds nuw %class.decl, ptr %7, i32 0, i32 2
  %13 = load ptr, ptr %12, align 8, !tbaa !69
  %14 = load i32, ptr %5, align 4, !tbaa !55
  %15 = load i32, ptr %6, align 4, !tbaa !55
  %16 = call noundef zeroext i1 @_ZNK9decl_info10is_decl_ofEii(ptr noundef nonnull align 8 dereferenceable(17) %13, i32 noundef %14, i32 noundef %15)
  br label %17

17:                                               ; preds = %11, %3
  %18 = phi i1 [ false, %3 ], [ %16, %11 ]
  ret i1 %18
}

; Function Attrs: mustprogress uwtable
define linkonce_odr hidden noundef zeroext i1 @_ZNK3app9is_app_ofEii(ptr noundef nonnull align 8 dereferenceable(32) %0, i32 noundef %1, i32 noundef %2) #4 comdat align 2 {
  %4 = alloca ptr, align 8
  %5 = alloca i32, align 4
  %6 = alloca i32, align 4
  store ptr %0, ptr %4, align 8, !tbaa !227
  store i32 %1, ptr %5, align 4, !tbaa !55
  store i32 %2, ptr %6, align 4, !tbaa !55
  %7 = load ptr, ptr %4, align 8
  %8 = getelementptr inbounds nuw %class.app, ptr %7, i32 0, i32 1
  %9 = load ptr, ptr %8, align 8, !tbaa !247
  %10 = load i32, ptr %5, align 4, !tbaa !55
  %11 = load i32, ptr %6, align 4, !tbaa !55
  %12 = call noundef zeroext i1 @_ZNK4decl10is_decl_ofEii(ptr noundef nonnull align 8 dereferenceable(32) %9, i32 noundef %10, i32 noundef %11)
  ret i1 %12
}

; Function Attrs: mustprogress nounwind uwtable
define linkonce_odr hidden noundef i32 @_ZNK3ast8get_kindEv(ptr noundef nonnull align 4 dereferenceable(16) %0) #6 comdat align 2 {
  %2 = alloca ptr, align 8
  store ptr %0, ptr %2, align 8, !tbaa !50
  %3 = load ptr, ptr %2, align 8
  %4 = getelementptr inbounds nuw %class.ast, ptr %3, i32 0, i32 1
  %5 = load i32, ptr %4, align 4
  %6 = and i32 %5, 65535
  ret i32 %6
}

; Function Attrs: inlinehint mustprogress uwtable
define linkonce_odr hidden noundef zeroext i1 @_Z9is_app_ofPK4exprii(ptr noundef %0, i32 noundef %1, i32 noundef %2) #8 comdat {
  %4 = alloca ptr, align 8
  %5 = alloca i32, align 4
  %6 = alloca i32, align 4
  store ptr %0, ptr %4, align 8, !tbaa !229
  store i32 %1, ptr %5, align 4, !tbaa !55
  store i32 %2, ptr %6, align 4, !tbaa !55
  %7 = load ptr, ptr %4, align 8, !tbaa !229
  %8 = call noundef i32 @_ZNK3ast8get_kindEv(ptr noundef nonnull align 4 dereferenceable(16) %7)
  %9 = icmp eq i32 %8, 0
  br i1 %9, label %10, label %16

10:                                               ; preds = %3
  %11 = load ptr, ptr %4, align 8, !tbaa !229
  %12 = call noundef ptr @_Z6to_appPK3ast(ptr noundef %11)
  %13 = load i32, ptr %5, align 4, !tbaa !55
  %14 = load i32, ptr %6, align 4, !tbaa !55
  %15 = call noundef zeroext i1 @_ZNK3app9is_app_ofEii(ptr noundef nonnull align 8 dereferenceable(32) %12, i32 noundef %13, i32 noundef %14)
  br label %16

16:                                               ; preds = %10, %3
  %17 = phi i1 [ false, %3 ], [ %15, %10 ]
  ret i1 %17
}

; Function Attrs: mustprogress nounwind uwtable
define linkonce_odr hidden noundef ptr @_ZNK3app7get_argEj(ptr noundef nonnull align 8 dereferenceable(32) %0, i32 noundef %1) #6 comdat align 2 {
  %3 = alloca ptr, align 8
  %4 = alloca i32, align 4
  store ptr %0, ptr %3, align 8, !tbaa !227
  store i32 %1, ptr %4, align 4, !tbaa !55
  %5 = load ptr, ptr %3, align 8
  %6 = getelementptr inbounds nuw %class.app, ptr %5, i32 0, i32 4
  %7 = load i32, ptr %4, align 4, !tbaa !55
  %8 = zext i32 %7 to i64
  %9 = getelementptr inbounds nuw [0 x ptr], ptr %6, i64 0, i64 %8
  %10 = load ptr, ptr %9, align 8, !tbaa !229
  ret ptr %10
}

; Function Attrs: mustprogress nounwind uwtable
define linkonce_odr hidden noundef i32 @_ZNK3app12get_num_argsEv(ptr noundef nonnull align 8 dereferenceable(32) %0) #6 comdat align 2 {
  %2 = alloca ptr, align 8
  store ptr %0, ptr %2, align 8, !tbaa !227
  %3 = load ptr, ptr %2, align 8
  %4 = getelementptr inbounds nuw %class.app, ptr %3, i32 0, i32 2
  %5 = load i32, ptr %4, align 8, !tbaa !232
  ret i32 %5
}

; Function Attrs: inlinehint mustprogress nounwind uwtable
define linkonce_odr hidden noundef ptr @_Z6to_appPK3ast(ptr noundef %0) #5 comdat {
  %2 = alloca ptr, align 8
  store ptr %0, ptr %2, align 8, !tbaa !50
  %3 = load ptr, ptr %2, align 8, !tbaa !50
  ret ptr %3
}

; Function Attrs: mustprogress uwtable
define linkonce_odr hidden noundef zeroext i1 @_ZNK8seq_util3rex8is_to_reEPK4expr(ptr noundef nonnull align 8 dereferenceable(80) %0, ptr noundef %1) #4 comdat align 2 {
  %3 = alloca ptr, align 8
  %4 = alloca ptr, align 8
  store ptr %0, ptr %3, align 8, !tbaa !237
  store ptr %1, ptr %4, align 8, !tbaa !229
  %5 = load ptr, ptr %3, align 8
  %6 = load ptr, ptr %4, align 8, !tbaa !229
  %7 = getelementptr inbounds nuw %"class.seq_util::rex", ptr %5, i32 0, i32 2
  %8 = load i32, ptr %7, align 8, !tbaa !240
  %9 = call noundef zeroext i1 @_Z9is_app_ofPK4exprii(ptr noundef %6, i32 noundef %8, i32 noundef 15)
  ret i1 %9
}

; Function Attrs: mustprogress uwtable
define linkonce_odr hidden noundef zeroext i1 @_ZNK8seq_util3rex12is_full_charEPK4expr(ptr noundef nonnull align 8 dereferenceable(80) %0, ptr noundef %1) #4 comdat align 2 {
  %3 = alloca ptr, align 8
  %4 = alloca ptr, align 8
  store ptr %0, ptr %3, align 8, !tbaa !237
  store ptr %1, ptr %4, align 8, !tbaa !229
  %5 = load ptr, ptr %3, align 8
  %6 = load ptr, ptr %4, align 8, !tbaa !229
  %7 = getelementptr inbounds nuw %"class.seq_util::rex", ptr %5, i32 0, i32 2
  %8 = load i32, ptr %7, align 8, !tbaa !240
  %9 = call noundef zeroext i1 @_Z9is_app_ofPK4exprii(ptr noundef %6, i32 noundef %8, i32 noundef 37)
  ret i1 %9
}

; Function Attrs: mustprogress uwtable
define hidden noundef zeroext i1 @_ZNK8seq_util3rex10is_epsilonEP4expr(ptr noundef nonnull align 8 dereferenceable(80) %0, ptr noundef %1) #4 align 2 {
  %3 = alloca ptr, align 8
  %4 = alloca ptr, align 8
  %5 = alloca ptr, align 8
  store ptr %0, ptr %3, align 8, !tbaa !237
  store ptr %1, ptr %4, align 8, !tbaa !229
  %6 = load ptr, ptr %3, align 8
  call void @llvm.lifetime.start.p0(i64 8, ptr %5) #3
  %7 = load ptr, ptr %4, align 8, !tbaa !229
  %8 = call noundef zeroext i1 @_ZNK8seq_util3rex8is_to_reEPK4exprRPS1_(ptr noundef nonnull align 8 dereferenceable(80) %6, ptr noundef %7, ptr noundef nonnull align 8 dereferenceable(8) %5)
  br i1 %8, label %9, label %15

9:                                                ; preds = %2
  %10 = getelementptr inbounds nuw %"class.seq_util::rex", ptr %6, i32 0, i32 0
  %11 = load ptr, ptr %10, align 8, !tbaa !286
  %12 = getelementptr inbounds nuw %class.seq_util, ptr %11, i32 0, i32 5
  %13 = load ptr, ptr %5, align 8, !tbaa !229
  %14 = call noundef zeroext i1 @_ZNK8seq_util3str8is_emptyEPK4expr(ptr noundef nonnull align 8 dereferenceable(20) %12, ptr noundef %13)
  br label %15

15:                                               ; preds = %9, %2
  %16 = phi i1 [ false, %2 ], [ %14, %9 ]
  call void @llvm.lifetime.end.p0(i64 8, ptr %5) #3
  ret i1 %16
}

; Function Attrs: mustprogress uwtable
define linkonce_odr hidden noundef zeroext i1 @_ZNK8seq_util3rex8is_emptyEPK4expr(ptr noundef nonnull align 8 dereferenceable(80) %0, ptr noundef %1) #4 comdat align 2 {
  %3 = alloca ptr, align 8
  %4 = alloca ptr, align 8
  store ptr %0, ptr %3, align 8, !tbaa !237
  store ptr %1, ptr %4, align 8, !tbaa !229
  %5 = load ptr, ptr %3, align 8
  %6 = load ptr, ptr %4, align 8, !tbaa !229
  %7 = getelementptr inbounds nuw %"class.seq_util::rex", ptr %5, i32 0, i32 2
  %8 = load i32, ptr %7, align 8, !tbaa !240
  %9 = call noundef zeroext i1 @_Z9is_app_ofPK4exprii(ptr noundef %6, i32 noundef %8, i32 noundef 35)
  ret i1 %9
}

; Function Attrs: mustprogress uwtable
define linkonce_odr hidden noundef zeroext i1 @_ZNK8seq_util3rex8is_rangeEPK4expr(ptr noundef nonnull align 8 dereferenceable(80) %0, ptr noundef %1) #4 comdat align 2 {
  %3 = alloca ptr, align 8
  %4 = alloca ptr, align 8
  store ptr %0, ptr %3, align 8, !tbaa !237
  store ptr %1, ptr %4, align 8, !tbaa !229
  %5 = load ptr, ptr %3, align 8
  %6 = load ptr, ptr %4, align 8, !tbaa !229
  %7 = getelementptr inbounds nuw %"class.seq_util::rex", ptr %5, i32 0, i32 2
  %8 = load i32, ptr %7, align 8, !tbaa !240
  %9 = call noundef zeroext i1 @_Z9is_app_ofPK4exprii(ptr noundef %6, i32 noundef %8, i32 noundef 27)
  ret i1 %9
}

; Function Attrs: mustprogress uwtable
define linkonce_odr hidden noundef zeroext i1 @_ZNK8seq_util3str7is_unitEPK4expr(ptr noundef nonnull align 8 dereferenceable(20) %0, ptr noundef %1) #4 comdat align 2 {
  %3 = alloca ptr, align 8
  %4 = alloca ptr, align 8
  store ptr %0, ptr %3, align 8, !tbaa !224
  store ptr %1, ptr %4, align 8, !tbaa !229
  %5 = load ptr, ptr %3, align 8
  %6 = load ptr, ptr %4, align 8, !tbaa !229
  %7 = getelementptr inbounds nuw %"class.seq_util::str", ptr %5, i32 0, i32 2
  %8 = load i32, ptr %7, align 8, !tbaa !226
  %9 = call noundef zeroext i1 @_Z9is_app_ofPK4exprii(ptr noundef %6, i32 noundef %8, i32 noundef 0)
  ret i1 %9
}

; Function Attrs: mustprogress uwtable
define linkonce_odr hidden noundef zeroext i1 @_ZNK8seq_util3rex8is_to_reEPK4exprRPS1_(ptr noundef nonnull align 8 dereferenceable(80) %0, ptr noundef %1, ptr noundef nonnull align 8 dereferenceable(8) %2) #4 comdat align 2 {
  %4 = alloca i1, align 1
  %5 = alloca ptr, align 8
  %6 = alloca ptr, align 8
  %7 = alloca ptr, align 8
  store ptr %0, ptr %5, align 8, !tbaa !237
  store ptr %1, ptr %6, align 8, !tbaa !229
  store ptr %2, ptr %7, align 8, !tbaa !228
  %8 = load ptr, ptr %5, align 8
  %9 = load ptr, ptr %6, align 8, !tbaa !229
  %10 = call noundef zeroext i1 @_ZNK8seq_util3rex8is_to_reEPK4expr(ptr noundef nonnull align 8 dereferenceable(80) %8, ptr noundef %9)
  br i1 %10, label %11, label %21

11:                                               ; preds = %3
  %12 = load ptr, ptr %6, align 8, !tbaa !229
  %13 = call noundef ptr @_Z6to_appPK3ast(ptr noundef %12)
  %14 = call noundef i32 @_ZNK3app12get_num_argsEv(ptr noundef nonnull align 8 dereferenceable(32) %13)
  %15 = icmp eq i32 %14, 1
  br i1 %15, label %16, label %21

16:                                               ; preds = %11
  %17 = load ptr, ptr %6, align 8, !tbaa !229
  %18 = call noundef ptr @_Z6to_appPK3ast(ptr noundef %17)
  %19 = call noundef ptr @_ZNK3app7get_argEj(ptr noundef nonnull align 8 dereferenceable(32) %18, i32 noundef 0)
  %20 = load ptr, ptr %7, align 8, !tbaa !228
  store ptr %19, ptr %20, align 8, !tbaa !229
  store i1 true, ptr %4, align 1
  br label %22

21:                                               ; preds = %11, %3
  store i1 false, ptr %4, align 1
  br label %22

22:                                               ; preds = %21, %16
  %23 = load i1, ptr %4, align 1
  ret i1 %23
}

; Function Attrs: mustprogress uwtable
define hidden noundef zeroext i1 @_ZNK8seq_util3rex2pp16can_skip_parenthEP4expr(ptr noundef nonnull align 8 dereferenceable(17) %0, ptr noundef %1) #4 align 2 {
  %3 = alloca ptr, align 8
  %4 = alloca ptr, align 8
  %5 = alloca ptr, align 8
  store ptr %0, ptr %3, align 8, !tbaa !287
  store ptr %1, ptr %4, align 8, !tbaa !229
  %6 = load ptr, ptr %3, align 8
  call void @llvm.lifetime.start.p0(i64 8, ptr %5) #3
  %7 = getelementptr inbounds nuw %"class.seq_util::rex::pp", ptr %6, i32 0, i32 0
  %8 = load ptr, ptr %7, align 8, !tbaa !289
  %9 = load ptr, ptr %4, align 8, !tbaa !229
  %10 = call noundef zeroext i1 @_ZNK8seq_util3rex8is_to_reEPK4exprRPS1_(ptr noundef nonnull align 8 dereferenceable(80) %8, ptr noundef %9, ptr noundef nonnull align 8 dereferenceable(8) %5)
  br i1 %10, label %11, label %19

11:                                               ; preds = %2
  %12 = getelementptr inbounds nuw %"class.seq_util::rex::pp", ptr %6, i32 0, i32 0
  %13 = load ptr, ptr %12, align 8, !tbaa !289
  %14 = getelementptr inbounds nuw %"class.seq_util::rex", ptr %13, i32 0, i32 0
  %15 = load ptr, ptr %14, align 8, !tbaa !286
  %16 = getelementptr inbounds nuw %class.seq_util, ptr %15, i32 0, i32 5
  %17 = load ptr, ptr %5, align 8, !tbaa !229
  %18 = call noundef zeroext i1 @_ZNK8seq_util3str7is_unitEPK4expr(ptr noundef nonnull align 8 dereferenceable(20) %16, ptr noundef %17)
  br i1 %18, label %39, label %19

19:                                               ; preds = %11, %2
  %20 = getelementptr inbounds nuw %"class.seq_util::rex::pp", ptr %6, i32 0, i32 0
  %21 = load ptr, ptr %20, align 8, !tbaa !289
  %22 = load ptr, ptr %4, align 8, !tbaa !229
  %23 = call noundef zeroext i1 @_ZNK8seq_util3rex8is_rangeEPK4expr(ptr noundef nonnull align 8 dereferenceable(80) %21, ptr noundef %22)
  br i1 %23, label %39, label %24

24:                                               ; preds = %19
  %25 = getelementptr inbounds nuw %"class.seq_util::rex::pp", ptr %6, i32 0, i32 0
  %26 = load ptr, ptr %25, align 8, !tbaa !289
  %27 = load ptr, ptr %4, align 8, !tbaa !229
  %28 = call noundef zeroext i1 @_ZNK8seq_util3rex8is_emptyEPK4expr(ptr noundef nonnull align 8 dereferenceable(80) %26, ptr noundef %27)
  br i1 %28, label %39, label %29

29:                                               ; preds = %24
  %30 = getelementptr inbounds nuw %"class.seq_util::rex::pp", ptr %6, i32 0, i32 0
  %31 = load ptr, ptr %30, align 8, !tbaa !289
  %32 = load ptr, ptr %4, align 8, !tbaa !229
  %33 = call noundef zeroext i1 @_ZNK8seq_util3rex10is_epsilonEP4expr(ptr noundef nonnull align 8 dereferenceable(80) %31, ptr noundef %32)
  br i1 %33, label %39, label %34

34:                                               ; preds = %29
  %35 = getelementptr inbounds nuw %"class.seq_util::rex::pp", ptr %6, i32 0, i32 0
  %36 = load ptr, ptr %35, align 8, !tbaa !289
  %37 = load ptr, ptr %4, align 8, !tbaa !229
  %38 = call noundef zeroext i1 @_ZNK8seq_util3rex12is_full_charEPK4expr(ptr noundef nonnull align 8 dereferenceable(80) %36, ptr noundef %37)
  br label %39

39:                                               ; preds = %34, %29, %24, %19, %11
  %40 = phi i1 [ true, %29 ], [ true, %24 ], [ true, %19 ], [ true, %11 ], [ %38, %34 ]
  call void @llvm.lifetime.end.p0(i64 8, ptr %5) #3
  ret i1 %40
}