; Function Attrs: mustprogress uwtable
define hidden noundef zeroext i1 @_ZNK8seq_util3rex2pp16can_skip_parenthEP4expr(ptr noundef nonnull readonly align 8 captures(none) dereferenceable(17) %0, ptr noundef readonly captures(none) %1) local_unnamed_addr #3 align 2 {
  %3 = load ptr, ptr %0, align 8, !tbaa !259
  %4 = getelementptr inbounds nuw i8, ptr %3, i64 16
  %5 = load i32, ptr %4, align 8, !tbaa !207
  %6 = getelementptr inbounds nuw i8, ptr %1, i64 4
  %7 = load i32, ptr %6, align 4
  %8 = and i32 %7, 65535
  %9 = icmp eq i32 %8, 0
  br i1 %9, label %10, label %_ZNK8seq_util3rex10is_epsilonEP4expr.exit.thread

10:                                               ; preds = %2
  %11 = getelementptr inbounds nuw i8, ptr %1, i64 16
  %12 = load ptr, ptr %11, align 8, !tbaa !186
  %13 = getelementptr inbounds nuw i8, ptr %12, i64 24
  %14 = load ptr, ptr %13, align 8, !tbaa !41
  %.not.i.i.i.i.i = icmp eq ptr %14, null
  br i1 %.not.i.i.i.i.i, label %_ZNK8seq_util3rex10is_epsilonEP4expr.exit.thread, label %_ZNK8seq_util3rex8is_to_reEPK4expr.exit.i

_ZNK8seq_util3rex8is_to_reEPK4expr.exit.i:        ; preds = %10
  %15 = load i32, ptr %14, align 8, !tbaa !44
  %16 = icmp eq i32 %15, %5
  %17 = getelementptr inbounds nuw i8, ptr %14, i64 4
  %18 = load i32, ptr %17, align 4
  %19 = icmp eq i32 %18, 15
  %20 = select i1 %16, i1 %19, i1 false
  br i1 %20, label %21, label %_ZNK8seq_util3rex8is_rangeEPK4expr.exit

21:                                               ; preds = %_ZNK8seq_util3rex8is_to_reEPK4expr.exit.i
  %22 = getelementptr inbounds nuw i8, ptr %1, i64 24
  %23 = load i32, ptr %22, align 8, !tbaa !191
  %24 = icmp eq i32 %23, 1
  br i1 %24, label %25, label %_ZNK8seq_util3rex8is_rangeEPK4expr.exit

25:                                               ; preds = %21
  %26 = getelementptr inbounds nuw i8, ptr %1, i64 32
  %27 = load ptr, ptr %26, align 8, !tbaa !178
  %28 = load ptr, ptr %3, align 8, !tbaa !258
  %29 = getelementptr inbounds nuw i8, ptr %28, i64 48
  %30 = load i32, ptr %29, align 8, !tbaa !206
  %31 = getelementptr inbounds nuw i8, ptr %27, i64 4
  %32 = load i32, ptr %31, align 4
  %33 = and i32 %32, 65535
  %34 = icmp eq i32 %33, 0
  br i1 %34, label %35, label %_ZNK8seq_util3rex8is_rangeEPK4expr.exit

35:                                               ; preds = %25
  %36 = getelementptr inbounds nuw i8, ptr %27, i64 16
  %37 = load ptr, ptr %36, align 8, !tbaa !186
  %38 = getelementptr inbounds nuw i8, ptr %37, i64 24
  %39 = load ptr, ptr %38, align 8, !tbaa !41
  %.not.i.i.i.i = icmp eq ptr %39, null
  br i1 %.not.i.i.i.i, label %_ZNK8seq_util3rex8is_rangeEPK4expr.exit, label %_ZNK8seq_util3str7is_unitEPK4expr.exit

_ZNK8seq_util3str7is_unitEPK4expr.exit:           ; preds = %35
  %40 = load i32, ptr %39, align 8, !tbaa !44
  %41 = icmp eq i32 %40, %30
  %42 = getelementptr inbounds nuw i8, ptr %39, i64 4
  %43 = load i32, ptr %42, align 4
  %44 = icmp eq i32 %43, 0
  %45 = select i1 %41, i1 %44, i1 false
  br i1 %45, label %_ZNK8seq_util3rex12is_full_charEPK4expr.exit, label %_ZNK8seq_util3rex8is_rangeEPK4expr.exit

_ZNK8seq_util3rex8is_rangeEPK4expr.exit:          ; preds = %_ZNK8seq_util3rex8is_to_reEPK4expr.exit.i, %21, %35, %25, %_ZNK8seq_util3str7is_unitEPK4expr.exit
  %46 = load i32, ptr %14, align 8, !tbaa !44
  %47 = icmp eq i32 %46, %5
  %48 = getelementptr inbounds nuw i8, ptr %14, i64 4
  %49 = load i32, ptr %48, align 4
  %50 = icmp eq i32 %49, 27
  %51 = select i1 %47, i1 %50, i1 false
  br i1 %51, label %_ZNK8seq_util3rex12is_full_charEPK4expr.exit, label %_ZNK8seq_util3rex8is_emptyEPK4expr.exit

_ZNK8seq_util3rex8is_emptyEPK4expr.exit:          ; preds = %_ZNK8seq_util3rex8is_rangeEPK4expr.exit
  %52 = load i32, ptr %14, align 8, !tbaa !44
  %53 = icmp eq i32 %52, %5
  %54 = getelementptr inbounds nuw i8, ptr %14, i64 4
  %55 = load i32, ptr %54, align 4
  %56 = icmp eq i32 %55, 35
  %57 = select i1 %53, i1 %56, i1 false
  br i1 %57, label %_ZNK8seq_util3rex12is_full_charEPK4expr.exit, label %_ZNK8seq_util3rex8is_to_reEPK4expr.exit.i.i

_ZNK8seq_util3rex8is_to_reEPK4expr.exit.i.i:      ; preds = %_ZNK8seq_util3rex8is_emptyEPK4expr.exit
  %58 = load i32, ptr %14, align 8, !tbaa !44
  %59 = icmp eq i32 %58, %5
  %60 = getelementptr inbounds nuw i8, ptr %14, i64 4
  %61 = load i32, ptr %60, align 4
  %62 = icmp eq i32 %61, 15
  %63 = select i1 %59, i1 %62, i1 false
  br i1 %63, label %64, label %_ZNK8seq_util3rex10is_epsilonEP4expr.exit.thread

64:                                               ; preds = %_ZNK8seq_util3rex8is_to_reEPK4expr.exit.i.i
  %65 = getelementptr inbounds nuw i8, ptr %1, i64 24
  %66 = load i32, ptr %65, align 8, !tbaa !191
  %67 = icmp eq i32 %66, 1
  br i1 %67, label %_ZNK8seq_util3rex10is_epsilonEP4expr.exit, label %_ZNK8seq_util3rex10is_epsilonEP4expr.exit.thread

_ZNK8seq_util3rex10is_epsilonEP4expr.exit:        ; preds = %64
  %68 = getelementptr inbounds nuw i8, ptr %1, i64 32
  %69 = load ptr, ptr %68, align 8, !tbaa !178
  %70 = load ptr, ptr %3, align 8, !tbaa !258
  %71 = getelementptr inbounds nuw i8, ptr %70, i64 32
  %72 = tail call noundef zeroext i1 @_ZNK8seq_util3str8is_emptyEPK4expr(ptr noundef nonnull align 8 dereferenceable(20) %71, ptr noundef %69)
  br i1 %72, label %_ZNK8seq_util3rex12is_full_charEPK4expr.exit, label %_ZNK8seq_util3rex10is_epsilonEP4expr.exit._ZNK8seq_util3rex10is_epsilonEP4expr.exit.thread_crit_edge

_ZNK8seq_util3rex10is_epsilonEP4expr.exit._ZNK8seq_util3rex10is_epsilonEP4expr.exit.thread_crit_edge: ; preds = %_ZNK8seq_util3rex10is_epsilonEP4expr.exit
  %.pre = load ptr, ptr %0, align 8, !tbaa !259
  %.phi.trans.insert = getelementptr inbounds nuw i8, ptr %.pre, i64 16
  %.pre17 = load i32, ptr %.phi.trans.insert, align 8, !tbaa !207
  %.pre18 = load i32, ptr %6, align 4
  br label %_ZNK8seq_util3rex10is_epsilonEP4expr.exit.thread

_ZNK8seq_util3rex10is_epsilonEP4expr.exit.thread: ; preds = %10, %_ZNK8seq_util3rex10is_epsilonEP4expr.exit._ZNK8seq_util3rex10is_epsilonEP4expr.exit.thread_crit_edge, %2, %_ZNK8seq_util3rex8is_to_reEPK4expr.exit.i.i, %64
  %73 = phi i32 [ %.pre18, %_ZNK8seq_util3rex10is_epsilonEP4expr.exit._ZNK8seq_util3rex10is_epsilonEP4expr.exit.thread_crit_edge ], [ %7, %2 ], [ %7, %_ZNK8seq_util3rex8is_to_reEPK4expr.exit.i.i ], [ %7, %64 ], [ %7, %10 ]
  %74 = phi i32 [ %.pre17, %_ZNK8seq_util3rex10is_epsilonEP4expr.exit._ZNK8seq_util3rex10is_epsilonEP4expr.exit.thread_crit_edge ], [ %5, %2 ], [ %5, %_ZNK8seq_util3rex8is_to_reEPK4expr.exit.i.i ], [ %5, %64 ], [ %5, %10 ]
  %75 = and i32 %73, 65535
  %76 = icmp eq i32 %75, 0
  br i1 %76, label %77, label %_ZNK8seq_util3rex12is_full_charEPK4expr.exit

77:                                               ; preds = %_ZNK8seq_util3rex10is_epsilonEP4expr.exit.thread
  %78 = getelementptr inbounds nuw i8, ptr %1, i64 16
  %79 = load ptr, ptr %78, align 8, !tbaa !186
  %80 = getelementptr inbounds nuw i8, ptr %79, i64 24
  %81 = load ptr, ptr %80, align 8, !tbaa !41
  %.not.i.i.i.i8 = icmp eq ptr %81, null
  br i1 %.not.i.i.i.i8, label %_ZNK8seq_util3rex12is_full_charEPK4expr.exit, label %82

82:                                               ; preds = %77
  %83 = load i32, ptr %81, align 8, !tbaa !44
  %84 = icmp eq i32 %83, %74
  %85 = getelementptr inbounds nuw i8, ptr %81, i64 4
  %86 = load i32, ptr %85, align 4
  %87 = icmp eq i32 %86, 37
  %88 = select i1 %84, i1 %87, i1 false
  br label %_ZNK8seq_util3rex12is_full_charEPK4expr.exit

_ZNK8seq_util3rex12is_full_charEPK4expr.exit:     ; preds = %82, %77, %_ZNK8seq_util3rex10is_epsilonEP4expr.exit.thread, %_ZNK8seq_util3rex10is_epsilonEP4expr.exit, %_ZNK8seq_util3rex8is_emptyEPK4expr.exit, %_ZNK8seq_util3rex8is_rangeEPK4expr.exit, %_ZNK8seq_util3str7is_unitEPK4expr.exit
  %89 = phi i1 [ true, %_ZNK8seq_util3rex10is_epsilonEP4expr.exit ], [ true, %_ZNK8seq_util3rex8is_emptyEPK4expr.exit ], [ true, %_ZNK8seq_util3rex8is_rangeEPK4expr.exit ], [ true, %_ZNK8seq_util3str7is_unitEPK4expr.exit ], [ false, %_ZNK8seq_util3rex10is_epsilonEP4expr.exit.thread ], [ false, %77 ], [ %88, %82 ]
  ret i1 %89
}